target datalayout = "e-m:e-p270:32:32-p271:32:32-p272:64:64-i64:64-i128:128-f80:128-n8:16:32:64-S128"
target triple = "x86_64-pc-linux-gnu"

%struct.OnigCaptureTreeNodeStruct = type { i32, i32, i32, i32, i32, ptr }

; Function Attrs: nounwind uwtable
define internal i32 @history_tree_add_child(ptr noundef %0, ptr noundef %1) #0 {
  %3 = alloca i32, align 4
  %4 = alloca ptr, align 8
  %5 = alloca ptr, align 8
  %6 = alloca i32, align 4
  %7 = alloca i32, align 4
  %8 = alloca i32, align 4
  store ptr %0, ptr %4, align 8, !tbaa !34
  store ptr %1, ptr %5, align 8, !tbaa !34
  %9 = load ptr, ptr %4, align 8, !tbaa !34
  %10 = getelementptr inbounds nuw %struct.OnigCaptureTreeNodeStruct, ptr %9, i32 0, i32 4
  %11 = load i32, ptr %10, align 8, !tbaa !39
  %12 = load ptr, ptr %4, align 8, !tbaa !34
  %13 = getelementptr inbounds nuw %struct.OnigCaptureTreeNodeStruct, ptr %12, i32 0, i32 3
  %14 = load i32, ptr %13, align 4, !tbaa !219
  %15 = icmp sge i32 %11, %14
  br i1 %15, label %16, label %73

16:                                               ; preds = %2
  call void @llvm.lifetime.start.p0(i64 4, ptr %6) #9
  call void @llvm.lifetime.start.p0(i64 4, ptr %7) #9
  %17 = load ptr, ptr %4, align 8, !tbaa !34
  %18 = getelementptr inbounds nuw %struct.OnigCaptureTreeNodeStruct, ptr %17, i32 0, i32 5
  %19 = load ptr, ptr %18, align 8, !tbaa !40
  %20 = icmp eq ptr %19, null
  br i1 %20, label %21, label %28

21:                                               ; preds = %16
  store i32 8, ptr %6, align 4, !tbaa !9
  %22 = load i32, ptr %6, align 4, !tbaa !9
  %23 = sext i32 %22 to i64
  %24 = mul i64 8, %23
  %25 = call noalias ptr @malloc(i64 noundef %24) #10
  %26 = load ptr, ptr %4, align 8, !tbaa !34
  %27 = getelementptr inbounds nuw %struct.OnigCaptureTreeNodeStruct, ptr %26, i32 0, i32 5
  store ptr %25, ptr %27, align 8, !tbaa !40
  br label %42

28:                                               ; preds = %16
  %29 = load ptr, ptr %4, align 8, !tbaa !34
  %30 = getelementptr inbounds nuw %struct.OnigCaptureTreeNodeStruct, ptr %29, i32 0, i32 3
  %31 = load i32, ptr %30, align 4, !tbaa !219
  %32 = mul nsw i32 %31, 2
  store i32 %32, ptr %6, align 4, !tbaa !9
  %33 = load ptr, ptr %4, align 8, !tbaa !34
  %34 = getelementptr inbounds nuw %struct.OnigCaptureTreeNodeStruct, ptr %33, i32 0, i32 5
  %35 = load ptr, ptr %34, align 8, !tbaa !40
  %36 = load i32, ptr %6, align 4, !tbaa !9
  %37 = sext i32 %36 to i64
  %38 = mul i64 8, %37
  %39 = call ptr @realloc(ptr noundef %35, i64 noundef %38) #11
  %40 = load ptr, ptr %4, align 8, !tbaa !34
  %41 = getelementptr inbounds nuw %struct.OnigCaptureTreeNodeStruct, ptr %40, i32 0, i32 5
  store ptr %39, ptr %41, align 8, !tbaa !40
  br label %42

42:                                               ; preds = %28, %21
  %43 = load ptr, ptr %4, align 8, !tbaa !34
  %44 = getelementptr inbounds nuw %struct.OnigCaptureTreeNodeStruct, ptr %43, i32 0, i32 5
  %45 = load ptr, ptr %44, align 8, !tbaa !40
  %46 = icmp eq ptr %45, null
  br i1 %46, label %47, label %48

47:                                               ; preds = %42
  store i32 -5, ptr %3, align 4
  store i32 1, ptr %8, align 4
  br label %70

48:                                               ; preds = %42
  %49 = load ptr, ptr %4, align 8, !tbaa !34
  %50 = getelementptr inbounds nuw %struct.OnigCaptureTreeNodeStruct, ptr %49, i32 0, i32 3
  %51 = load i32, ptr %50, align 4, !tbaa !219
  store i32 %51, ptr %7, align 4, !tbaa !9
  br label %52

52:                                               ; preds = %63, %48
  %53 = load i32, ptr %7, align 4, !tbaa !9
  %54 = load i32, ptr %6, align 4, !tbaa !9
  %55 = icmp slt i32 %53, %54
  br i1 %55, label %56, label %66

56:                                               ; preds = %52
  %57 = load ptr, ptr %4, align 8, !tbaa !34
  %58 = getelementptr inbounds nuw %struct.OnigCaptureTreeNodeStruct, ptr %57, i32 0, i32 5
  %59 = load ptr, ptr %58, align 8, !tbaa !40
  %60 = load i32, ptr %7, align 4, !tbaa !9
  %61 = sext i32 %60 to i64
  %62 = getelementptr inbounds ptr, ptr %59, i64 %61
  store ptr null, ptr %62, align 8, !tbaa !34
  br label %63

63:                                               ; preds = %56
  %64 = load i32, ptr %7, align 4, !tbaa !9
  %65 = add nsw i32 %64, 1
  store i32 %65, ptr %7, align 4, !tbaa !9
  br label %52, !llvm.loop !221

66:                                               ; preds = %52
  %67 = load i32, ptr %6, align 4, !tbaa !9
  %68 = load ptr, ptr %4, align 8, !tbaa !34
  %69 = getelementptr inbounds nuw %struct.OnigCaptureTreeNodeStruct, ptr %68, i32 0, i32 3
  store i32 %67, ptr %69, align 4, !tbaa !219
  store i32 0, ptr %8, align 4
  br label %70

70:                                               ; preds = %66, %47
  call void @llvm.lifetime.end.p0(i64 4, ptr %7) #9
  call void @llvm.lifetime.end.p0(i64 4, ptr %6) #9
  %71 = load i32, ptr %8, align 4
  switch i32 %71, label %89 [
    i32 0, label %72
    i32 1, label %87
  ]

72:                                               ; preds = %70
  br label %73

73:                                               ; preds = %72, %2
  %74 = load ptr, ptr %5, align 8, !tbaa !34
  %75 = load ptr, ptr %4, align 8, !tbaa !34
  %76 = getelementptr inbounds nuw %struct.OnigCaptureTreeNodeStruct, ptr %75, i32 0, i32 5
  %77 = load ptr, ptr %76, align 8, !tbaa !40
  %78 = load ptr, ptr %4, align 8, !tbaa !34
  %79 = getelementptr inbounds nuw %struct.OnigCaptureTreeNodeStruct, ptr %78, i32 0, i32 4
  %80 = load i32, ptr %79, align 8, !tbaa !39
  %81 = sext i32 %80 to i64
  %82 = getelementptr inbounds ptr, ptr %77, i64 %81
  store ptr %74, ptr %82, align 8, !tbaa !34
  %83 = load ptr, ptr %4, align 8, !tbaa !34
  %84 = getelementptr inbounds nuw %struct.OnigCaptureTreeNodeStruct, ptr %83, i32 0, i32 4
  %85 = load i32, ptr %84, align 8, !tbaa !39
  %86 = add nsw i32 %85, 1
  store i32 %86, ptr %84, align 8, !tbaa !39
  store i32 0, ptr %3, align 4
  br label %87

87:                                               ; preds = %73, %70
  %88 = load i32, ptr %3, align 4
  ret i32 %88

89:                                               ; preds = %70
  unreachable
}

; Function Attrs: nounwind uwtable
define internal ptr @history_node_new() #0 {
  %1 = alloca ptr, align 8
  %2 = alloca ptr, align 8
  %3 = alloca i32, align 4
  call void @llvm.lifetime.start.p0(i64 8, ptr %2) #9
  %4 = call noalias ptr @malloc(i64 noundef 32) #10
  store ptr %4, ptr %2, align 8, !tbaa !34
  %5 = load ptr, ptr %2, align 8, !tbaa !34
  %6 = icmp eq ptr %5, null
  br i1 %6, label %7, label %8

7:                                                ; preds = %0
  store ptr null, ptr %1, align 8
  store i32 1, ptr %3, align 4
  br label %22

8:                                                ; preds = %0
  %9 = load ptr, ptr %2, align 8, !tbaa !34
  %10 = getelementptr inbounds nuw %struct.OnigCaptureTreeNodeStruct, ptr %9, i32 0, i32 5
  store ptr null, ptr %10, align 8, !tbaa !40
  %11 = load ptr, ptr %2, align 8, !tbaa !34
  %12 = getelementptr inbounds nuw %struct.OnigCaptureTreeNodeStruct, ptr %11, i32 0, i32 3
  store i32 0, ptr %12, align 4, !tbaa !219
  %13 = load ptr, ptr %2, align 8, !tbaa !34
  %14 = getelementptr inbounds nuw %struct.OnigCaptureTreeNodeStruct, ptr %13, i32 0, i32 4
  store i32 0, ptr %14, align 8, !tbaa !39
  %15 = load ptr, ptr %2, align 8, !tbaa !34
  %16 = getelementptr inbounds nuw %struct.OnigCaptureTreeNodeStruct, ptr %15, i32 0, i32 0
  store i32 -1, ptr %16, align 8, !tbaa !126
  %17 = load ptr, ptr %2, align 8, !tbaa !34
  %18 = getelementptr inbounds nuw %struct.OnigCaptureTreeNodeStruct, ptr %17, i32 0, i32 1
  store i32 -1, ptr %18, align 4, !tbaa !35
  %19 = load ptr, ptr %2, align 8, !tbaa !34
  %20 = getelementptr inbounds nuw %struct.OnigCaptureTreeNodeStruct, ptr %19, i32 0, i32 2
  store i32 -1, ptr %20, align 8, !tbaa !38
  %21 = load ptr, ptr %2, align 8, !tbaa !34
  store ptr %21, ptr %1, align 8
  store i32 1, ptr %3, align 4
  br label %22

22:                                               ; preds = %8, %7
  call void @llvm.lifetime.end.p0(i64 8, ptr %2) #9
  %23 = load ptr, ptr %1, align 8
  ret ptr %23
}

; Function Attrs: nounwind uwtable
define internal ptr @history_tree_clone(ptr noundef %0) #0 {
  %2 = alloca ptr, align 8
  %3 = alloca ptr, align 8
  %4 = alloca i32, align 4
  %5 = alloca ptr, align 8
  %6 = alloca ptr, align 8
  %7 = alloca i32, align 4
  store ptr %0, ptr %3, align 8, !tbaa !34
  call void @llvm.lifetime.start.p0(i64 4, ptr %4) #9
  call void @llvm.lifetime.start.p0(i64 8, ptr %5) #9
  call void @llvm.lifetime.start.p0(i64 8, ptr %6) #9
  %8 = call ptr @history_node_new()
  store ptr %8, ptr %5, align 8, !tbaa !34
  %9 = load ptr, ptr %5, align 8, !tbaa !34
  %10 = icmp eq ptr %9, null
  br i1 %10, label %11, label %12

11:                                               ; preds = %1
  store ptr null, ptr %2, align 8
  store i32 1, ptr %7, align 4
  br label %51

12:                                               ; preds = %1
  %13 = load ptr, ptr %3, align 8, !tbaa !34
  %14 = getelementptr inbounds nuw %struct.OnigCaptureTreeNodeStruct, ptr %13, i32 0, i32 1
  %15 = load i32, ptr %14, align 4, !tbaa !35
  %16 = load ptr, ptr %5, align 8, !tbaa !34
  %17 = getelementptr inbounds nuw %struct.OnigCaptureTreeNodeStruct, ptr %16, i32 0, i32 1
  store i32 %15, ptr %17, align 4, !tbaa !35
  %18 = load ptr, ptr %3, align 8, !tbaa !34
  %19 = getelementptr inbounds nuw %struct.OnigCaptureTreeNodeStruct, ptr %18, i32 0, i32 2
  %20 = load i32, ptr %19, align 8, !tbaa !38
  %21 = load ptr, ptr %5, align 8, !tbaa !34
  %22 = getelementptr inbounds nuw %struct.OnigCaptureTreeNodeStruct, ptr %21, i32 0, i32 2
  store i32 %20, ptr %22, align 8, !tbaa !38
  store i32 0, ptr %4, align 4, !tbaa !9
  br label %23

23:                                               ; preds = %46, %12
  %24 = load i32, ptr %4, align 4, !tbaa !9
  %25 = load ptr, ptr %3, align 8, !tbaa !34
  %26 = getelementptr inbounds nuw %struct.OnigCaptureTreeNodeStruct, ptr %25, i32 0, i32 4
  %27 = load i32, ptr %26, align 8, !tbaa !39
  %28 = icmp slt i32 %24, %27
  br i1 %28, label %29, label %49

29:                                               ; preds = %23
  %30 = load ptr, ptr %3, align 8, !tbaa !34
  %31 = getelementptr inbounds nuw %struct.OnigCaptureTreeNodeStruct, ptr %30, i32 0, i32 5
  %32 = load ptr, ptr %31, align 8, !tbaa !40
  %33 = load i32, ptr %4, align 4, !tbaa !9
  %34 = sext i32 %33 to i64
  %35 = getelementptr inbounds ptr, ptr %32, i64 %34
  %36 = load ptr, ptr %35, align 8, !tbaa !34
  %37 = call ptr @history_tree_clone(ptr noundef %36)
  store ptr %37, ptr %6, align 8, !tbaa !34
  %38 = load ptr, ptr %6, align 8, !tbaa !34
  %39 = icmp eq ptr %38, null
  br i1 %39, label %40, label %42

40:                                               ; preds = %29
  %41 = load ptr, ptr %5, align 8, !tbaa !34
  call void @history_tree_free(ptr noundef %41)
  store ptr null, ptr %2, align 8
  store i32 1, ptr %7, align 4
  br label %51

42:                                               ; preds = %29
  %43 = load ptr, ptr %5, align 8, !tbaa !34
  %44 = load ptr, ptr %6, align 8, !tbaa !34
  %45 = call i32 @history_tree_add_child(ptr noundef %43, ptr noundef %44)
  br label %46

46:                                               ; preds = %42
  %47 = load i32, ptr %4, align 4, !tbaa !9
  %48 = add nsw i32 %47, 1
  store i32 %48, ptr %4, align 4, !tbaa !9
  br label %23, !llvm.loop !41

49:                                               ; preds = %23
  %50 = load ptr, ptr %5, align 8, !tbaa !34
  store ptr %50, ptr %2, align 8
  store i32 1, ptr %7, align 4
  br label %51

51:                                               ; preds = %49, %40, %11
  call void @llvm.lifetime.end.p0(i64 8, ptr %6) #9
  call void @llvm.lifetime.end.p0(i64 8, ptr %5) #9
  call void @llvm.lifetime.end.p0(i64 4, ptr %4) #9
  %52 = load ptr, ptr %2, align 8
  ret ptr %52
}