; Function Attrs: nounwind uwtable
define internal fastcc noalias noundef ptr @history_tree_clone(ptr noundef readonly captures(none) %0) unnamed_addr #4 {
  %2 = tail call noalias dereferenceable_or_null(32) ptr @malloc(i64 noundef 32) #28
  %3 = icmp eq ptr %2, null
  br i1 %3, label %history_node_new.exit.thread, label %4

4:                                                ; preds = %1
  %5 = getelementptr inbounds nuw i8, ptr %2, i64 24
  store ptr null, ptr %5, align 8, !tbaa !29
  %6 = getelementptr inbounds nuw i8, ptr %2, i64 12
  store i32 0, ptr %6, align 4, !tbaa !32
  %7 = getelementptr inbounds nuw i8, ptr %2, i64 16
  store i32 0, ptr %7, align 8, !tbaa !33
  store i32 -1, ptr %2, align 8, !tbaa !34
  %8 = getelementptr inbounds nuw i8, ptr %2, i64 4
  %9 = getelementptr inbounds nuw i8, ptr %2, i64 8
  %10 = getelementptr inbounds nuw i8, ptr %0, i64 4
  %11 = load i32, ptr %10, align 4, !tbaa !35
  store i32 %11, ptr %8, align 4, !tbaa !35
  %12 = getelementptr inbounds nuw i8, ptr %0, i64 8
  %13 = load i32, ptr %12, align 8, !tbaa !36
  store i32 %13, ptr %9, align 8, !tbaa !36
  %14 = getelementptr inbounds nuw i8, ptr %0, i64 16
  %15 = load i32, ptr %14, align 8, !tbaa !33
  %16 = icmp sgt i32 %15, 0
  br i1 %16, label %.lr.ph, label %history_node_new.exit.thread

.lr.ph:                                           ; preds = %4
  %17 = getelementptr inbounds nuw i8, ptr %0, i64 24
  br label %18

18:                                               ; preds = %.lr.ph, %history_tree_add_child.exit
  %.pre.i = phi ptr [ null, %.lr.ph ], [ %.pre.i22, %history_tree_add_child.exit ]
  %19 = phi i32 [ 0, %.lr.ph ], [ %52, %history_tree_add_child.exit ]
  %20 = phi i32 [ 0, %.lr.ph ], [ %53, %history_tree_add_child.exit ]
  %indvars.iv = phi i64 [ 0, %.lr.ph ], [ %indvars.iv.next, %history_tree_add_child.exit ]
  %21 = load ptr, ptr %17, align 8, !tbaa !29
  %22 = getelementptr inbounds nuw ptr, ptr %21, i64 %indvars.iv
  %23 = load ptr, ptr %22, align 8, !tbaa !37
  %24 = tail call fastcc ptr @history_tree_clone(ptr noundef %23)
  %25 = icmp eq ptr %24, null
  br i1 %25, label %26, label %27

26:                                               ; preds = %18
  tail call fastcc void @history_tree_free(ptr noundef %2)
  br label %history_node_new.exit.thread

27:                                               ; preds = %18
  %.not.i = icmp slt i32 %20, %19
  br i1 %.not.i, label %._crit_edge31.i, label %28

28:                                               ; preds = %27
  %29 = icmp eq ptr %.pre.i, null
  br i1 %29, label %30, label %32

30:                                               ; preds = %28
  %31 = tail call noalias dereferenceable_or_null(64) ptr @malloc(i64 noundef 64) #28
  br label %37

32:                                               ; preds = %28
  %33 = shl nsw i32 %19, 1
  %34 = sext i32 %33 to i64
  %35 = shl nsw i64 %34, 3
  %36 = tail call ptr @realloc(ptr noundef nonnull %.pre.i, i64 noundef %35) #29
  br label %37

37:                                               ; preds = %32, %30
  %storemerge.i = phi ptr [ %36, %32 ], [ %31, %30 ]
  %.024.i = phi i32 [ %33, %32 ], [ 8, %30 ]
  store ptr %storemerge.i, ptr %5, align 8, !tbaa !29
  %38 = icmp eq ptr %storemerge.i, null
  br i1 %38, label %history_tree_add_child.exit, label %39

39:                                               ; preds = %37
  %40 = icmp slt i32 %19, %.024.i
  br i1 %40, label %.lr.ph.preheader.i, label %._crit_edge.i

.lr.ph.preheader.i:                               ; preds = %39
  %41 = sext i32 %19 to i64
  %42 = shl nsw i64 %41, 3
  %scevgep.i = getelementptr i8, ptr %storemerge.i, i64 %42
  %43 = xor i32 %19, -1
  %44 = add i32 %.024.i, %43
  %45 = zext i32 %44 to i64
  %46 = shl nuw nsw i64 %45, 3
  %47 = add nuw nsw i64 %46, 8
  tail call void @llvm.memset.p0.i64(ptr noundef nonnull align 8 dereferenceable(1) %scevgep.i, i8 0, i64 %47, i1 false), !tbaa !37
  br label %._crit_edge.i

._crit_edge.i:                                    ; preds = %.lr.ph.preheader.i, %39
  store i32 %.024.i, ptr %6, align 4, !tbaa !32
  br label %._crit_edge31.i

._crit_edge31.i:                                  ; preds = %._crit_edge.i, %27
  %.pre.i20 = phi ptr [ %storemerge.i, %._crit_edge.i ], [ %.pre.i, %27 ]
  %48 = phi i32 [ %.024.i, %._crit_edge.i ], [ %19, %27 ]
  %49 = sext i32 %20 to i64
  %50 = getelementptr inbounds ptr, ptr %.pre.i20, i64 %49
  store ptr %24, ptr %50, align 8, !tbaa !37
  %51 = add nsw i32 %20, 1
  store i32 %51, ptr %7, align 8, !tbaa !33
  br label %history_tree_add_child.exit

history_tree_add_child.exit:                      ; preds = %37, %._crit_edge31.i
  %.pre.i22 = phi ptr [ null, %37 ], [ %.pre.i20, %._crit_edge31.i ]
  %52 = phi i32 [ %19, %37 ], [ %48, %._crit_edge31.i ]
  %53 = phi i32 [ %20, %37 ], [ %51, %._crit_edge31.i ]
  %indvars.iv.next = add nuw nsw i64 %indvars.iv, 1
  %54 = load i32, ptr %14, align 8, !tbaa !33
  %55 = sext i32 %54 to i64
  %56 = icmp slt i64 %indvars.iv.next, %55
  br i1 %56, label %18, label %history_node_new.exit.thread, !llvm.loop !38

history_node_new.exit.thread:                     ; preds = %history_tree_add_child.exit, %4, %1, %26
  %.0 = phi ptr [ null, %26 ], [ null, %1 ], [ %2, %4 ], [ %2, %history_tree_add_child.exit ]
  ret ptr %.0
}